target datalayout = "e-m:e-p270:32:32-p271:32:32-p272:64:64-i64:64-i128:128-f80:128-n8:16:32:64-S128"
target triple = "x86_64-unknown-linux-gnu"

%"class.std::mutex" = type { %"class.std::__mutex_base" }
%"class.std::__mutex_base" = type { %union.pthread_mutex_t }
%union.pthread_mutex_t = type { %struct.__pthread_mutex_s }
%struct.__pthread_mutex_s = type { i32, i32, i32, i32, i32, i16, i16, %struct.__pthread_internal_list }
%struct.__pthread_internal_list = type { ptr, ptr }
%"class.std::condition_variable" = type { %"class.std::__condvar" }
%"class.std::__condvar" = type { %union.pthread_cond_t }
%union.pthread_cond_t = type { %struct.__pthread_cond_s }
%struct.__pthread_cond_s = type { %union.__atomic_wide_counter, %union.__atomic_wide_counter, [2 x i32], [2 x i32], i32, i32, [2 x i32] }
%union.__atomic_wide_counter = type { i64 }
%"class.spdlog::details::thread_pool" = type { %"class.spdlog::details::mpmc_blocking_queue", %"class.std::vector.23" }
%"class.spdlog::details::mpmc_blocking_queue" = type { %"class.std::mutex", %"class.std::condition_variable", %"class.std::condition_variable", %"class.spdlog::details::circular_q.15", %"struct.std::atomic.21" }
%"class.spdlog::details::circular_q.15" = type { i64, i64, i64, i64, %"class.std::vector.16" }
%"class.std::vector.16" = type { %"struct.std::_Vector_base.17" }
%"struct.std::_Vector_base.17" = type { %"struct.std::_Vector_base<spdlog::details::async_msg, std::allocator<spdlog::details::async_msg>>::_Vector_impl" }
%"struct.std::_Vector_base<spdlog::details::async_msg, std::allocator<spdlog::details::async_msg>>::_Vector_impl" = type { %"struct.std::_Vector_base<spdlog::details::async_msg, std::allocator<spdlog::details::async_msg>>::_Vector_impl_data" }
%"struct.std::_Vector_base<spdlog::details::async_msg, std::allocator<spdlog::details::async_msg>>::_Vector_impl_data" = type { ptr, ptr, ptr }
%"struct.std::atomic.21" = type { %"struct.std::__atomic_base.22" }
%"struct.std::__atomic_base.22" = type { i64 }
%"class.std::vector.23" = type { %"struct.std::_Vector_base.24" }
%"struct.std::_Vector_base.24" = type { %"struct.std::_Vector_base<std::thread, std::allocator<std::thread>>::_Vector_impl" }
%"struct.std::_Vector_base<std::thread, std::allocator<std::thread>>::_Vector_impl" = type { %"struct.std::_Vector_base<std::thread, std::allocator<std::thread>>::_Vector_impl_data" }
%"struct.std::_Vector_base<std::thread, std::allocator<std::thread>>::_Vector_impl_data" = type { ptr, ptr, ptr }
%"class.std::unique_lock" = type <{ ptr, i8, [7 x i8] }>

; Function Attrs: mustprogress nounwind uwtable
define internal noundef i32 @_ZL18__gthread_active_pv() #2 {
entry:
  ret i32 1
}

; Function Attrs: mustprogress nounwind uwtable
define internal noundef i32 @_ZL22__gthread_mutex_unlockP15pthread_mutex_t(ptr noundef %__mutex) #2 {
entry:
  %retval = alloca i32, align 4
  %__mutex.addr = alloca ptr, align 8
  store ptr %__mutex, ptr %__mutex.addr, align 8
  %call = call noundef i32 @_ZL18__gthread_active_pv()
  %tobool = icmp ne i32 %call, 0
  br i1 %tobool, label %if.then, label %if.else

if.then:                                          ; preds = %entry
  %0 = load ptr, ptr %__mutex.addr, align 8
  %call1 = call i32 @pthread_mutex_unlock(ptr noundef %0) #14
  store i32 %call1, ptr %retval, align 4
  br label %return

if.else:                                          ; preds = %entry
  store i32 0, ptr %retval, align 4
  br label %return

return:                                           ; preds = %if.else, %if.then
  %1 = load i32, ptr %retval, align 4
  ret i32 %1
}

; Function Attrs: mustprogress uwtable
define internal noundef i32 @_ZL20__gthread_mutex_lockP15pthread_mutex_t(ptr noundef %__mutex) #0 {
entry:
  %retval = alloca i32, align 4
  %__mutex.addr = alloca ptr, align 8
  store ptr %__mutex, ptr %__mutex.addr, align 8
  %call = call noundef i32 @_ZL18__gthread_active_pv()
  %tobool = icmp ne i32 %call, 0
  br i1 %tobool, label %if.then, label %if.else

if.then:                                          ; preds = %entry
  %0 = load ptr, ptr %__mutex.addr, align 8
  %call1 = call i32 @pthread_mutex_lock(ptr noundef %0) #14
  store i32 %call1, ptr %retval, align 4
  br label %return

if.else:                                          ; preds = %entry
  store i32 0, ptr %retval, align 4
  br label %return

return:                                           ; preds = %if.else, %if.then
  %1 = load i32, ptr %retval, align 4
  ret i32 %1
}

; Function Attrs: mustprogress uwtable
define linkonce_odr dso_local void @_ZNSt5mutex6unlockEv(ptr noundef nonnull align 8 dereferenceable(40) %this) #0 comdat align 2 {
entry:
  %this.addr = alloca ptr, align 8
  store ptr %this, ptr %this.addr, align 8
  %this1 = load ptr, ptr %this.addr, align 8
  %_M_mutex = getelementptr inbounds %"class.std::__mutex_base", ptr %this1, i32 0, i32 0
  %call = call noundef i32 @_ZL22__gthread_mutex_unlockP15pthread_mutex_t(ptr noundef %_M_mutex)
  ret void
}

; Function Attrs: mustprogress uwtable
define linkonce_odr dso_local void @_ZNSt5mutex4lockEv(ptr noundef nonnull align 8 dereferenceable(40) %this) #0 comdat align 2 {
entry:
  %this.addr = alloca ptr, align 8
  %__e = alloca i32, align 4
  store ptr %this, ptr %this.addr, align 8
  %this1 = load ptr, ptr %this.addr, align 8
  %_M_mutex = getelementptr inbounds %"class.std::__mutex_base", ptr %this1, i32 0, i32 0
  %call = call noundef i32 @_ZL20__gthread_mutex_lockP15pthread_mutex_t(ptr noundef %_M_mutex)
  store i32 %call, ptr %__e, align 4
  %0 = load i32, ptr %__e, align 4
  %tobool = icmp ne i32 %0, 0
  br i1 %tobool, label %if.then, label %if.end

if.then:                                          ; preds = %entry
  %1 = load i32, ptr %__e, align 4
  call void @_ZSt20__throw_system_errori(i32 noundef %1) #15
  unreachable

if.end:                                           ; preds = %entry
  ret void
}

; Function Attrs: noreturn nounwind uwtable
define linkonce_odr hidden void @__clang_call_terminate(ptr noundef %0) #6 comdat {
  %2 = call ptr @__cxa_begin_catch(ptr %0) #14
  call void @_ZSt9terminatev() #16
  unreachable
}

; Function Attrs: mustprogress uwtable
define linkonce_odr dso_local void @_ZNSt11unique_lockISt5mutexE6unlockEv(ptr noundef nonnull align 8 dereferenceable(9) %this) #0 comdat align 2 {
entry:
  %this.addr = alloca ptr, align 8
  store ptr %this, ptr %this.addr, align 8
  %this1 = load ptr, ptr %this.addr, align 8
  %_M_owns = getelementptr inbounds %"class.std::unique_lock", ptr %this1, i32 0, i32 1
  %0 = load i8, ptr %_M_owns, align 8
  %tobool = trunc i8 %0 to i1
  br i1 %tobool, label %if.else, label %if.then

if.then:                                          ; preds = %entry
  call void @_ZSt20__throw_system_errori(i32 noundef 1) #15
  unreachable

if.else:                                          ; preds = %entry
  %_M_device = getelementptr inbounds %"class.std::unique_lock", ptr %this1, i32 0, i32 0
  %1 = load ptr, ptr %_M_device, align 8
  %tobool2 = icmp ne ptr %1, null
  br i1 %tobool2, label %if.then3, label %if.end

if.then3:                                         ; preds = %if.else
  %_M_device4 = getelementptr inbounds %"class.std::unique_lock", ptr %this1, i32 0, i32 0
  %2 = load ptr, ptr %_M_device4, align 8
  call void @_ZNSt5mutex6unlockEv(ptr noundef nonnull align 8 dereferenceable(40) %2)
  %_M_owns5 = getelementptr inbounds %"class.std::unique_lock", ptr %this1, i32 0, i32 1
  store i8 0, ptr %_M_owns5, align 8
  br label %if.end

if.end:                                           ; preds = %if.then3, %if.else
  br label %if.end6

if.end6:                                          ; preds = %if.end
  ret void
}

; Function Attrs: mustprogress uwtable
define linkonce_odr dso_local void @_ZNSt11unique_lockISt5mutexE4lockEv(ptr noundef nonnull align 8 dereferenceable(9) %this) #0 comdat align 2 {
entry:
  %this.addr = alloca ptr, align 8
  store ptr %this, ptr %this.addr, align 8
  %this1 = load ptr, ptr %this.addr, align 8
  %_M_device = getelementptr inbounds %"class.std::unique_lock", ptr %this1, i32 0, i32 0
  %0 = load ptr, ptr %_M_device, align 8
  %tobool = icmp ne ptr %0, null
  br i1 %tobool, label %if.else, label %if.then

if.then:                                          ; preds = %entry
  call void @_ZSt20__throw_system_errori(i32 noundef 1) #15
  unreachable

if.else:                                          ; preds = %entry
  %_M_owns = getelementptr inbounds %"class.std::unique_lock", ptr %this1, i32 0, i32 1
  %1 = load i8, ptr %_M_owns, align 8
  %tobool2 = trunc i8 %1 to i1
  br i1 %tobool2, label %if.then3, label %if.else4

if.then3:                                         ; preds = %if.else
  call void @_ZSt20__throw_system_errori(i32 noundef 35) #15
  unreachable

if.else4:                                         ; preds = %if.else
  %_M_device5 = getelementptr inbounds %"class.std::unique_lock", ptr %this1, i32 0, i32 0
  %2 = load ptr, ptr %_M_device5, align 8
  call void @_ZNSt5mutex4lockEv(ptr noundef nonnull align 8 dereferenceable(40) %2)
  %_M_owns6 = getelementptr inbounds %"class.std::unique_lock", ptr %this1, i32 0, i32 1
  store i8 1, ptr %_M_owns6, align 8
  br label %if.end

if.end:                                           ; preds = %if.else4
  br label %if.end7

if.end7:                                          ; preds = %if.end
  ret void
}

; Function Attrs: mustprogress nounwind uwtable
define linkonce_odr dso_local noundef i64 @_ZNSt13__atomic_baseImEppEv(ptr noundef nonnull align 8 dereferenceable(8) %this) #2 comdat align 2 {
entry:
  %this.addr = alloca ptr, align 8
  %.atomictmp = alloca i64, align 8
  %atomic-temp = alloca i64, align 8
  store ptr %this, ptr %this.addr, align 8
  %this1 = load ptr, ptr %this.addr, align 8
  %_M_i = getelementptr inbounds %"struct.std::__atomic_base.22", ptr %this1, i32 0, i32 0
  store i64 1, ptr %.atomictmp, align 8
  %0 = load i64, ptr %.atomictmp, align 8
  %1 = atomicrmw add ptr %_M_i, i64 %0 seq_cst, align 8
  %2 = add i64 %1, %0
  store i64 %2, ptr %atomic-temp, align 8
  %3 = load i64, ptr %atomic-temp, align 8
  ret i64 %3
}

; Function Attrs: mustprogress nounwind uwtable
define linkonce_odr dso_local noundef zeroext i1 @_ZNK6spdlog7details10circular_qINS0_9async_msgEE4fullEv(ptr noundef nonnull align 8 dereferenceable(56) %this) #2 comdat align 2 {
entry:
  %retval = alloca i1, align 1
  %this.addr = alloca ptr, align 8
  store ptr %this, ptr %this.addr, align 8
  %this1 = load ptr, ptr %this.addr, align 8
  %max_items_ = getelementptr inbounds %"class.spdlog::details::circular_q.15", ptr %this1, i32 0, i32 0
  %0 = load i64, ptr %max_items_, align 8
  %cmp = icmp ugt i64 %0, 0
  br i1 %cmp, label %if.then, label %if.end

if.then:                                          ; preds = %entry
  %tail_ = getelementptr inbounds %"class.spdlog::details::circular_q.15", ptr %this1, i32 0, i32 2
  %1 = load i64, ptr %tail_, align 8
  %add = add i64 %1, 1
  %max_items_2 = getelementptr inbounds %"class.spdlog::details::circular_q.15", ptr %this1, i32 0, i32 0
  %2 = load i64, ptr %max_items_2, align 8
  %rem = urem i64 %add, %2
  %head_ = getelementptr inbounds %"class.spdlog::details::circular_q.15", ptr %this1, i32 0, i32 1
  %3 = load i64, ptr %head_, align 8
  %cmp3 = icmp eq i64 %rem, %3
  store i1 %cmp3, ptr %retval, align 1
  br label %return

if.end:                                           ; preds = %entry
  store i1 false, ptr %retval, align 1
  br label %return

return:                                           ; preds = %if.end, %if.then
  %4 = load i1, ptr %retval, align 1
  ret i1 %4
}

; Function Attrs: mustprogress nounwind uwtable
define linkonce_odr dso_local void @_ZNSt11unique_lockISt5mutexED2Ev(ptr noundef nonnull align 8 dereferenceable(9) %this) unnamed_addr #2 comdat align 2 personality ptr @__gxx_personality_v0 {
entry:
  %this.addr = alloca ptr, align 8
  store ptr %this, ptr %this.addr, align 8
  %this1 = load ptr, ptr %this.addr, align 8
  %_M_owns = getelementptr inbounds %"class.std::unique_lock", ptr %this1, i32 0, i32 1
  %0 = load i8, ptr %_M_owns, align 8
  %tobool = trunc i8 %0 to i1
  br i1 %tobool, label %if.then, label %if.end

if.then:                                          ; preds = %entry
  invoke void @_ZNSt11unique_lockISt5mutexE6unlockEv(ptr noundef nonnull align 8 dereferenceable(9) %this1)
          to label %invoke.cont unwind label %terminate.lpad

invoke.cont:                                      ; preds = %if.then
  br label %if.end

if.end:                                           ; preds = %invoke.cont, %entry
  ret void

terminate.lpad:                                   ; preds = %if.then
  %1 = landingpad { ptr, i32 }
          catch ptr null
  %2 = extractvalue { ptr, i32 } %1, 0
  call void @__clang_call_terminate(ptr %2) #16
  unreachable
}

; Function Attrs: mustprogress uwtable
define linkonce_odr dso_local void @_ZNSt11unique_lockISt5mutexEC2ERS0_(ptr noundef nonnull align 8 dereferenceable(9) %this, ptr noundef nonnull align 8 dereferenceable(40) %__m) unnamed_addr #0 comdat align 2 {
entry:
  %this.addr = alloca ptr, align 8
  %__m.addr = alloca ptr, align 8
  store ptr %this, ptr %this.addr, align 8
  store ptr %__m, ptr %__m.addr, align 8
  %this1 = load ptr, ptr %this.addr, align 8
  %_M_device = getelementptr inbounds %"class.std::unique_lock", ptr %this1, i32 0, i32 0
  %0 = load ptr, ptr %__m.addr, align 8
  store ptr %0, ptr %_M_device, align 8
  %_M_owns = getelementptr inbounds %"class.std::unique_lock", ptr %this1, i32 0, i32 1
  store i8 0, ptr %_M_owns, align 8
  call void @_ZNSt11unique_lockISt5mutexE4lockEv(ptr noundef nonnull align 8 dereferenceable(9) %this1)
  %_M_owns2 = getelementptr inbounds %"class.std::unique_lock", ptr %this1, i32 0, i32 1
  store i8 1, ptr %_M_owns2, align 8
  ret void
}

; Function Attrs: mustprogress uwtable
define linkonce_odr dso_local void @_ZN6spdlog7details19mpmc_blocking_queueINS0_9async_msgEE20enqueue_if_have_roomEOS2_(ptr noundef nonnull align 8 dereferenceable(200) %this, ptr noundef nonnull align 8 dereferenceable(408) %item) #0 comdat align 2 {
entry:
  %this.addr = alloca ptr, align 8
  %item.addr = alloca ptr, align 8
  %pushed = alloca i8, align 1
  %lock = alloca %"class.std::unique_lock", align 8
  store ptr %this, ptr %this.addr, align 8
  store ptr %item, ptr %item.addr, align 8
  %this1 = load ptr, ptr %this.addr, align 8
  store i8 0, ptr %pushed, align 1
  %queue_mutex_ = getelementptr inbounds %"class.spdlog::details::mpmc_blocking_queue", ptr %this1, i32 0, i32 0
  call void @_ZNSt11unique_lockISt5mutexEC2ERS0_(ptr noundef nonnull align 8 dereferenceable(9) %lock, ptr noundef nonnull align 8 dereferenceable(40) %queue_mutex_)
  %q_ = getelementptr inbounds %"class.spdlog::details::mpmc_blocking_queue", ptr %this1, i32 0, i32 3
  %call = call noundef zeroext i1 @_ZNK6spdlog7details10circular_qINS0_9async_msgEE4fullEv(ptr noundef nonnull align 8 dereferenceable(56) %q_)
  br i1 %call, label %if.end, label %if.then

if.then:                                          ; preds = %entry
  %q_2 = getelementptr inbounds %"class.spdlog::details::mpmc_blocking_queue", ptr %this1, i32 0, i32 3
  %0 = load ptr, ptr %item.addr, align 8
  call void @_ZN6spdlog7details10circular_qINS0_9async_msgEE9push_backEOS2_(ptr noundef nonnull align 8 dereferenceable(56) %q_2, ptr noundef nonnull align 8 dereferenceable(408) %0)
  store i8 1, ptr %pushed, align 1
  br label %if.end

if.end:                                           ; preds = %if.then, %entry
  call void @_ZNSt11unique_lockISt5mutexED2Ev(ptr noundef nonnull align 8 dereferenceable(9) %lock) #14
  %1 = load i8, ptr %pushed, align 1
  %tobool = trunc i8 %1 to i1
  br i1 %tobool, label %if.then3, label %if.else

if.then3:                                         ; preds = %if.end
  %push_cv_ = getelementptr inbounds %"class.spdlog::details::mpmc_blocking_queue", ptr %this1, i32 0, i32 1
  call void @_ZNSt18condition_variable10notify_oneEv(ptr noundef nonnull align 8 dereferenceable(48) %push_cv_) #14
  br label %if.end5

if.else:                                          ; preds = %if.end
  %discard_counter_ = getelementptr inbounds %"class.spdlog::details::mpmc_blocking_queue", ptr %this1, i32 0, i32 4
  %call4 = call noundef i64 @_ZNSt13__atomic_baseImEppEv(ptr noundef nonnull align 8 dereferenceable(8) %discard_counter_) #14
  br label %if.end5

if.end5:                                          ; preds = %if.else, %if.then3
  ret void
}

; Function Attrs: mustprogress uwtable
define linkonce_odr dso_local void @_ZN6spdlog7details19mpmc_blocking_queueINS0_9async_msgEE14enqueue_nowaitEOS2_(ptr noundef nonnull align 8 dereferenceable(200) %this, ptr noundef nonnull align 8 dereferenceable(408) %item) #0 comdat align 2 {
entry:
  %this.addr = alloca ptr, align 8
  %item.addr = alloca ptr, align 8
  %lock = alloca %"class.std::unique_lock", align 8
  store ptr %this, ptr %this.addr, align 8
  store ptr %item, ptr %item.addr, align 8
  %this1 = load ptr, ptr %this.addr, align 8
  %queue_mutex_ = getelementptr inbounds %"class.spdlog::details::mpmc_blocking_queue", ptr %this1, i32 0, i32 0
  call void @_ZNSt11unique_lockISt5mutexEC2ERS0_(ptr noundef nonnull align 8 dereferenceable(9) %lock, ptr noundef nonnull align 8 dereferenceable(40) %queue_mutex_)
  %q_ = getelementptr inbounds %"class.spdlog::details::mpmc_blocking_queue", ptr %this1, i32 0, i32 3
  %0 = load ptr, ptr %item.addr, align 8
  call void @_ZN6spdlog7details10circular_qINS0_9async_msgEE9push_backEOS2_(ptr noundef nonnull align 8 dereferenceable(56) %q_, ptr noundef nonnull align 8 dereferenceable(408) %0)
  call void @_ZNSt11unique_lockISt5mutexED2Ev(ptr noundef nonnull align 8 dereferenceable(9) %lock) #14
  %push_cv_ = getelementptr inbounds %"class.spdlog::details::mpmc_blocking_queue", ptr %this1, i32 0, i32 1
  call void @_ZNSt18condition_variable10notify_oneEv(ptr noundef nonnull align 8 dereferenceable(48) %push_cv_) #14
  ret void
}

; Function Attrs: mustprogress uwtable
define dso_local void @_ZN6spdlog7details11thread_pool15post_async_msg_EONS0_9async_msgENS_21async_overflow_policyE(ptr noundef nonnull align 8 dereferenceable(224) %this, ptr noundef nonnull align 8 dereferenceable(408) %new_msg, i32 noundef %overflow_policy) #0 align 2 {
entry:
  %this.addr = alloca ptr, align 8
  %new_msg.addr = alloca ptr, align 8
  %overflow_policy.addr = alloca i32, align 4
  store ptr %this, ptr %this.addr, align 8
  store ptr %new_msg, ptr %new_msg.addr, align 8
  store i32 %overflow_policy, ptr %overflow_policy.addr, align 4
  %this1 = load ptr, ptr %this.addr, align 8
  %0 = load i32, ptr %overflow_policy.addr, align 4
  %cmp = icmp eq i32 %0, 0
  br i1 %cmp, label %if.then, label %if.else

if.then:                                          ; preds = %entry
  %q_ = getelementptr inbounds %"class.spdlog::details::thread_pool", ptr %this1, i32 0, i32 0
  %1 = load ptr, ptr %new_msg.addr, align 8
  call void @_ZN6spdlog7details19mpmc_blocking_queueINS0_9async_msgEE7enqueueEOS2_(ptr noundef nonnull align 8 dereferenceable(200) %q_, ptr noundef nonnull align 8 dereferenceable(408) %1)
  br label %if.end7

if.else:                                          ; preds = %entry
  %2 = load i32, ptr %overflow_policy.addr, align 4
  %cmp2 = icmp eq i32 %2, 1
  br i1 %cmp2, label %if.then3, label %if.else5

if.then3:                                         ; preds = %if.else
  %q_4 = getelementptr inbounds %"class.spdlog::details::thread_pool", ptr %this1, i32 0, i32 0
  %3 = load ptr, ptr %new_msg.addr, align 8
  call void @_ZN6spdlog7details19mpmc_blocking_queueINS0_9async_msgEE14enqueue_nowaitEOS2_(ptr noundef nonnull align 8 dereferenceable(200) %q_4, ptr noundef nonnull align 8 dereferenceable(408) %3)
  br label %if.end

if.else5:                                         ; preds = %if.else
  %q_6 = getelementptr inbounds %"class.spdlog::details::thread_pool", ptr %this1, i32 0, i32 0
  %4 = load ptr, ptr %new_msg.addr, align 8
  call void @_ZN6spdlog7details19mpmc_blocking_queueINS0_9async_msgEE20enqueue_if_have_roomEOS2_(ptr noundef nonnull align 8 dereferenceable(200) %q_6, ptr noundef nonnull align 8 dereferenceable(408) %4)
  br label %if.end

if.end:                                           ; preds = %if.else5, %if.then3
  br label %if.end7

if.end7:                                          ; preds = %if.end, %if.then
  ret void
}