; Function Attrs: mustprogress uwtable
define dso_local void @_ZN6spdlog7details11thread_pool15post_async_msg_EONS0_9async_msgENS_21async_overflow_policyE(ptr noundef nonnull align 8 dereferenceable(224) %this, ptr noundef nonnull align 8 dereferenceable(408) %new_msg, i32 noundef %overflow_policy) local_unnamed_addr #0 align 2 personality ptr @__gxx_personality_v0 {
entry:
  switch i32 %overflow_policy, label %if.else5 [
    i32 0, label %if.then
    i32 1, label %if.then3
  ]

if.then:                                          ; preds = %entry
  tail call void @_ZN6spdlog7details19mpmc_blocking_queueINS0_9async_msgEE7enqueueEOS2_(ptr noundef nonnull align 8 dereferenceable(200) %this, ptr noundef nonnull align 8 dereferenceable(408) %new_msg)
  br label %if.end7

if.then3:                                         ; preds = %entry
  %call1.i.i.i.i.i = tail call noundef i32 @pthread_mutex_lock(ptr noundef nonnull %this) #18
  %tobool.not.i.i.i.i = icmp eq i32 %call1.i.i.i.i.i, 0
  br i1 %tobool.not.i.i.i.i, label %_ZN6spdlog7details19mpmc_blocking_queueINS0_9async_msgEE14enqueue_nowaitEOS2_.exit, label %if.then.i.i.i.i

if.then.i.i.i.i:                                  ; preds = %if.then3
  tail call void @_ZSt20__throw_system_errori(i32 noundef %call1.i.i.i.i.i) #19
  unreachable

_ZN6spdlog7details19mpmc_blocking_queueINS0_9async_msgEE14enqueue_nowaitEOS2_.exit: ; preds = %if.then3
  %q_.i = getelementptr inbounds i8, ptr %this, i64 136
  tail call void @_ZN6spdlog7details10circular_qINS0_9async_msgEE9push_backEOS2_(ptr noundef nonnull align 8 dereferenceable(56) %q_.i, ptr noundef nonnull align 8 dereferenceable(408) %new_msg)
  %call1.i.i.i.i2.i = tail call noundef i32 @pthread_mutex_unlock(ptr noundef nonnull %this) #18
  %push_cv_.i = getelementptr inbounds i8, ptr %this, i64 40
  tail call void @_ZNSt18condition_variable10notify_oneEv(ptr noundef nonnull align 8 dereferenceable(48) %push_cv_.i) #18
  br label %if.end7

if.else5:                                         ; preds = %entry
  %call1.i.i.i.i.i4 = tail call noundef i32 @pthread_mutex_lock(ptr noundef nonnull %this) #18
  %tobool.not.i.i.i.i5 = icmp eq i32 %call1.i.i.i.i.i4, 0
  br i1 %tobool.not.i.i.i.i5, label %_ZNSt11unique_lockISt5mutexEC2ERS0_.exit.i, label %if.then.i.i.i.i6

if.then.i.i.i.i6:                                 ; preds = %if.else5
  tail call void @_ZSt20__throw_system_errori(i32 noundef %call1.i.i.i.i.i4) #19
  unreachable

_ZNSt11unique_lockISt5mutexEC2ERS0_.exit.i:       ; preds = %if.else5
  %q_.i7 = getelementptr inbounds i8, ptr %this, i64 136
  %0 = load i64, ptr %q_.i7, align 8
  %cmp.not.i.i = icmp eq i64 %0, 0
  br i1 %cmp.not.i.i, label %_ZNSt11unique_lockISt5mutexED2Ev.exit.i, label %_ZNK6spdlog7details10circular_qINS0_9async_msgEE4fullEv.exit.i

_ZNK6spdlog7details10circular_qINS0_9async_msgEE4fullEv.exit.i: ; preds = %_ZNSt11unique_lockISt5mutexEC2ERS0_.exit.i
  %tail_.i.i = getelementptr inbounds i8, ptr %this, i64 152
  %1 = load i64, ptr %tail_.i.i, align 8
  %add.i.i = add i64 %1, 1
  %rem.i.i = urem i64 %add.i.i, %0
  %head_.i.i = getelementptr inbounds i8, ptr %this, i64 144
  %2 = load i64, ptr %head_.i.i, align 8
  %cmp3.i.i = icmp eq i64 %rem.i.i, %2
  br i1 %cmp3.i.i, label %_ZNSt11unique_lockISt5mutexED2Ev.exit9.i, label %_ZNSt11unique_lockISt5mutexED2Ev.exit.i

_ZNSt11unique_lockISt5mutexED2Ev.exit.i:          ; preds = %_ZNK6spdlog7details10circular_qINS0_9async_msgEE4fullEv.exit.i, %_ZNSt11unique_lockISt5mutexEC2ERS0_.exit.i
  tail call void @_ZN6spdlog7details10circular_qINS0_9async_msgEE9push_backEOS2_(ptr noundef nonnull align 8 dereferenceable(56) %q_.i7, ptr noundef nonnull align 8 dereferenceable(408) %new_msg)
  %call1.i.i.i.i2.i8 = tail call noundef i32 @pthread_mutex_unlock(ptr noundef nonnull %this) #18
  %push_cv_.i9 = getelementptr inbounds i8, ptr %this, i64 40
  tail call void @_ZNSt18condition_variable10notify_oneEv(ptr noundef nonnull align 8 dereferenceable(48) %push_cv_.i9) #18
  br label %if.end7

_ZNSt11unique_lockISt5mutexED2Ev.exit9.i:         ; preds = %_ZNK6spdlog7details10circular_qINS0_9async_msgEE4fullEv.exit.i
  %call1.i.i.i.i8.i = tail call noundef i32 @pthread_mutex_unlock(ptr noundef nonnull %this) #18
  %discard_counter_.i = getelementptr inbounds i8, ptr %this, i64 192
  %3 = atomicrmw add ptr %discard_counter_.i, i64 1 seq_cst, align 8
  br label %if.end7

if.end7:                                          ; preds = %_ZNSt11unique_lockISt5mutexED2Ev.exit9.i, %_ZNSt11unique_lockISt5mutexED2Ev.exit.i, %_ZN6spdlog7details19mpmc_blocking_queueINS0_9async_msgEE14enqueue_nowaitEOS2_.exit, %if.then
  ret void
}